; Function Attrs: nofree norecurse nosync nounwind memory(argmem: readwrite) uwtable
define internal void @vp7_h_loop_filter_simple_c(ptr noundef captures(none) %0, i64 noundef %1, i32 noundef %2) #1 {
  br label %4

4:                                                ; preds = %3, %45
  %indvars.iv = phi i64 [ 0, %3 ], [ %indvars.iv.next, %45 ]
  %5 = mul nsw i64 %1, %indvars.iv
  %6 = getelementptr inbounds i8, ptr %0, i64 %5
  %7 = getelementptr inbounds i8, ptr %6, i64 -1
  %8 = load i8, ptr %7, align 1, !tbaa !10
  %9 = zext i8 %8 to i32
  %10 = load i8, ptr %6, align 1, !tbaa !10
  %11 = zext i8 %10 to i32
  %12 = sub nsw i32 %9, %11
  %13 = tail call i32 @llvm.abs.i32(i32 %12, i1 true)
  %.not8 = icmp sgt i32 %13, %2
  br i1 %.not8, label %45, label %14

14:                                               ; preds = %4
  %15 = getelementptr inbounds i8, ptr %6, i64 -2
  %16 = load i8, ptr %15, align 1, !tbaa !10
  %17 = zext i8 %16 to i64
  %18 = getelementptr inbounds nuw i8, ptr %6, i64 1
  %19 = load i8, ptr %18, align 1, !tbaa !10
  %20 = zext i8 %19 to i64
  %21 = sub nsw i32 %11, %9
  %22 = mul nsw i32 %21, 3
  %23 = sub nsw i64 %17, %20
  %gep = getelementptr i8, ptr getelementptr inbounds nuw (i8, ptr @ff_crop_tab, i64 1152), i64 %23
  %24 = load i8, ptr %gep, align 1, !tbaa !10
  %25 = zext i8 %24 to i32
  %26 = add nsw i32 %22, -128
  %27 = add nsw i32 %26, %25
  %28 = sext i32 %27 to i64
  %gep9 = getelementptr i8, ptr getelementptr inbounds nuw (i8, ptr @ff_crop_tab, i64 1152), i64 %28
  %29 = load i8, ptr %gep9, align 1, !tbaa !10
  %30 = zext i8 %29 to i32
  %31 = tail call i32 @llvm.umin.i32(i32 %30, i32 251)
  %32 = add nsw i32 %31, -124
  %33 = ashr i32 %32, 3
  %34 = and i32 %30, 7
  %35 = icmp eq i32 %34, 4
  %.neg.i = sext i1 %35 to i32
  %36 = add nsw i32 %.neg.i, %9
  %37 = add nsw i32 %36, %33
  %38 = sext i32 %37 to i64
  %39 = getelementptr inbounds i8, ptr getelementptr inbounds nuw (i8, ptr @ff_crop_tab, i64 1024), i64 %38
  %40 = load i8, ptr %39, align 1, !tbaa !10
  store i8 %40, ptr %7, align 1, !tbaa !10
  %41 = sub nsw i32 %11, %33
  %42 = sext i32 %41 to i64
  %43 = getelementptr inbounds i8, ptr getelementptr inbounds nuw (i8, ptr @ff_crop_tab, i64 1024), i64 %42
  %44 = load i8, ptr %43, align 1, !tbaa !10
  store i8 %44, ptr %6, align 1, !tbaa !10
  br label %45

45:                                               ; preds = %4, %14
  %indvars.iv.next = add nuw nsw i64 %indvars.iv, 1
  %exitcond.not = icmp eq i64 %indvars.iv.next, 16
  br i1 %exitcond.not, label %46, label %4, !llvm.loop !143

46:                                               ; preds = %45
  ret void
}